target datalayout = "e-m:e-p270:32:32-p271:32:32-p272:64:64-i64:64-i128:128-f80:128-n8:16:32:64-S128"
target triple = "x86_64-pc-linux-gnu"

%struct.mi_segment_s = type { %struct.mi_memid_s, i8, i8, i64, ptr, ptr, ptr, i8, i8, i64, i64, i64, i64, i64, i64, ptr, ptr, i64, i64, i32, [1 x %struct.mi_page_s] }
%struct.mi_memid_s = type { %union.anon, i8, i8, i8, i32 }
%union.anon = type { %struct.mi_memid_os_info }
%struct.mi_memid_os_info = type { ptr, i64 }
%struct.mi_page_s = type { i8, i8, i16, i16, %union.mi_page_flags_s, i8, ptr, ptr, i16, i8, i8, i64, ptr, i64, i64, ptr, ptr }
%union.mi_page_flags_s = type { i8 }
%struct.mi_segmap_part_s = type { %struct.mi_memid_s, [1008 x i64] }

@mi_segment_map = internal global [196 x ptr] zeroinitializer, align 16

; Function Attrs: nounwind uwtable
define internal ptr @mi_segment_map_index_of(ptr noundef %0, i1 noundef zeroext %1, ptr noundef %2, ptr noundef %3) #0 {
  %5 = alloca ptr, align 8
  %6 = alloca ptr, align 8
  %7 = alloca i8, align 1
  %8 = alloca ptr, align 8
  %9 = alloca ptr, align 8
  %10 = alloca i64, align 8
  %11 = alloca i32, align 4
  %12 = alloca ptr, align 8
  %13 = alloca ptr, align 8
  %14 = alloca %struct.mi_memid_s, align 8
  %15 = alloca ptr, align 8
  %16 = alloca ptr, align 8
  %17 = alloca i8, align 1
  %18 = alloca i64, align 8
  %19 = alloca i64, align 8
  store ptr %0, ptr %6, align 8, !tbaa !3
  %20 = zext i1 %1 to i8
  store i8 %20, ptr %7, align 1, !tbaa !18
  store ptr %2, ptr %8, align 8, !tbaa !23
  store ptr %3, ptr %9, align 8, !tbaa !23
  %21 = load ptr, ptr %8, align 8, !tbaa !23
  store i64 0, ptr %21, align 8, !tbaa !17
  %22 = load ptr, ptr %9, align 8, !tbaa !23
  store i64 0, ptr %22, align 8, !tbaa !17
  %23 = load ptr, ptr %6, align 8, !tbaa !3
  %24 = ptrtoint ptr %23 to i64
  %25 = icmp uge i64 %24, 52776558133248
  br i1 %25, label %26, label %27

26:                                               ; preds = %4
  store ptr null, ptr %5, align 8
  br label %93

27:                                               ; preds = %4
  call void @llvm.lifetime.start.p0(i64 8, ptr %10) #6
  %28 = load ptr, ptr %6, align 8, !tbaa !3
  %29 = ptrtoint ptr %28 to i64
  %30 = udiv i64 %29, 270582939648
  store i64 %30, ptr %10, align 8, !tbaa !17
  %31 = load i64, ptr %10, align 8, !tbaa !17
  %32 = icmp uge i64 %31, 196
  br i1 %32, label %33, label %34

33:                                               ; preds = %27
  store ptr null, ptr %5, align 8
  store i32 1, ptr %11, align 4
  br label %92

34:                                               ; preds = %27
  call void @llvm.lifetime.start.p0(i64 8, ptr %12) #6
  %35 = load i64, ptr %10, align 8, !tbaa !17
  %36 = getelementptr inbounds nuw [196 x ptr], ptr @mi_segment_map, i64 0, i64 %35
  %37 = load atomic i64, ptr %36 monotonic, align 8
  store i64 %37, ptr %13, align 8
  %38 = load ptr, ptr %13, align 8, !tbaa !15
  store ptr %38, ptr %12, align 8, !tbaa !15
  %39 = load ptr, ptr %12, align 8, !tbaa !15
  %40 = icmp eq ptr %39, null
  br i1 %40, label %41, label %78

41:                                               ; preds = %34
  %42 = load i8, ptr %7, align 1, !tbaa !18, !range !19, !noundef !20
  %43 = trunc i8 %42 to i1
  br i1 %43, label %45, label %44

44:                                               ; preds = %41
  store ptr null, ptr %5, align 8
  store i32 1, ptr %11, align 4
  br label %91

45:                                               ; preds = %41
  call void @llvm.lifetime.start.p0(i64 24, ptr %14) #6
  %46 = call ptr @_mi_os_alloc(i64 noundef 8088, ptr noundef %14) #7
  store ptr %46, ptr %12, align 8, !tbaa !15
  %47 = load ptr, ptr %12, align 8, !tbaa !15
  %48 = icmp eq ptr %47, null
  br i1 %48, label %49, label %50

49:                                               ; preds = %45
  store ptr null, ptr %5, align 8
  store i32 1, ptr %11, align 4
  br label %75

50:                                               ; preds = %45
  %51 = load ptr, ptr %12, align 8, !tbaa !15
  %52 = getelementptr inbounds nuw %struct.mi_segmap_part_s, ptr %51, i32 0, i32 0
  call void @llvm.memcpy.p0.p0.i64(ptr align 8 %52, ptr align 8 %14, i64 24, i1 false), !tbaa.struct !25
  call void @llvm.lifetime.start.p0(i64 8, ptr %15) #6
  store ptr null, ptr %15, align 8, !tbaa !15
  %53 = load i64, ptr %10, align 8, !tbaa !17
  %54 = getelementptr inbounds nuw [196 x ptr], ptr @mi_segment_map, i64 0, i64 %53
  %55 = load ptr, ptr %12, align 8, !tbaa !15
  store ptr %55, ptr %16, align 8, !tbaa !15
  %56 = load i64, ptr %15, align 8
  %57 = load i64, ptr %16, align 8
  %58 = cmpxchg ptr %54, i64 %56, i64 %57 release monotonic, align 8
  %59 = extractvalue { i64, i1 } %58, 0
  %60 = extractvalue { i64, i1 } %58, 1
  br i1 %60, label %62, label %61

61:                                               ; preds = %50
  store i64 %59, ptr %15, align 8
  br label %62

62:                                               ; preds = %61, %50
  %63 = zext i1 %60 to i8
  store i8 %63, ptr %17, align 1, !tbaa !18
  %64 = load i8, ptr %17, align 1, !tbaa !18, !range !19, !noundef !20
  %65 = trunc i8 %64 to i1
  br i1 %65, label %73, label %66

66:                                               ; preds = %62
  %67 = load ptr, ptr %12, align 8, !tbaa !15
  call void @_mi_os_free(ptr noundef %67, i64 noundef 8088, ptr noundef byval(%struct.mi_memid_s) align 8 %14) #7
  %68 = load ptr, ptr %15, align 8, !tbaa !15
  store ptr %68, ptr %12, align 8, !tbaa !15
  %69 = load ptr, ptr %12, align 8, !tbaa !15
  %70 = icmp eq ptr %69, null
  br i1 %70, label %71, label %72

71:                                               ; preds = %66
  store ptr null, ptr %5, align 8
  store i32 1, ptr %11, align 4
  br label %74

72:                                               ; preds = %66
  br label %73

73:                                               ; preds = %72, %62
  store i32 0, ptr %11, align 4
  br label %74

74:                                               ; preds = %73, %71
  call void @llvm.lifetime.end.p0(i64 8, ptr %15) #6
  br label %75

75:                                               ; preds = %74, %49
  call void @llvm.lifetime.end.p0(i64 24, ptr %14) #6
  %76 = load i32, ptr %11, align 4
  switch i32 %76, label %91 [
    i32 0, label %77
  ]

77:                                               ; preds = %75
  br label %78

78:                                               ; preds = %77, %34
  call void @llvm.lifetime.start.p0(i64 8, ptr %18) #6
  %79 = load ptr, ptr %6, align 8, !tbaa !3
  %80 = ptrtoint ptr %79 to i64
  %81 = urem i64 %80, 270582939648
  store i64 %81, ptr %18, align 8, !tbaa !17
  call void @llvm.lifetime.start.p0(i64 8, ptr %19) #6
  %82 = load i64, ptr %18, align 8, !tbaa !17
  %83 = udiv i64 %82, 4194304
  store i64 %83, ptr %19, align 8, !tbaa !17
  %84 = load i64, ptr %19, align 8, !tbaa !17
  %85 = udiv i64 %84, 64
  %86 = load ptr, ptr %8, align 8, !tbaa !23
  store i64 %85, ptr %86, align 8, !tbaa !17
  %87 = load i64, ptr %19, align 8, !tbaa !17
  %88 = urem i64 %87, 64
  %89 = load ptr, ptr %9, align 8, !tbaa !23
  store i64 %88, ptr %89, align 8, !tbaa !17
  %90 = load ptr, ptr %12, align 8, !tbaa !15
  store ptr %90, ptr %5, align 8
  store i32 1, ptr %11, align 4
  call void @llvm.lifetime.end.p0(i64 8, ptr %19) #6
  call void @llvm.lifetime.end.p0(i64 8, ptr %18) #6
  br label %91

91:                                               ; preds = %78, %75, %44
  call void @llvm.lifetime.end.p0(i64 8, ptr %12) #6
  br label %92

92:                                               ; preds = %91, %33
  call void @llvm.lifetime.end.p0(i64 8, ptr %10) #6
  br label %93

93:                                               ; preds = %92, %26
  %94 = load ptr, ptr %5, align 8
  ret ptr %94
}

; Function Attrs: nounwind uwtable
define hidden void @_mi_segment_map_allocated_at(ptr noundef %0) #0 {
  %2 = alloca ptr, align 8
  %3 = alloca i64, align 8
  %4 = alloca i64, align 8
  %5 = alloca ptr, align 8
  %6 = alloca i32, align 4
  %7 = alloca i64, align 8
  %8 = alloca i64, align 8
  %9 = alloca i64, align 8
  %10 = alloca i64, align 8
  %11 = alloca i8, align 1
  store ptr %0, ptr %2, align 8, !tbaa !3
  %12 = load ptr, ptr %2, align 8, !tbaa !3
  %13 = getelementptr inbounds nuw %struct.mi_segment_s, ptr %12, i32 0, i32 0
  %14 = getelementptr inbounds nuw %struct.mi_memid_s, ptr %13, i32 0, i32 4
  %15 = load i32, ptr %14, align 4, !tbaa !8
  %16 = icmp eq i32 %15, 6
  br i1 %16, label %17, label %18

17:                                               ; preds = %1
  br label %56

18:                                               ; preds = %1
  call void @llvm.lifetime.start.p0(i64 8, ptr %3) #6
  call void @llvm.lifetime.start.p0(i64 8, ptr %4) #6
  call void @llvm.lifetime.start.p0(i64 8, ptr %5) #6
  %19 = load ptr, ptr %2, align 8, !tbaa !3
  %20 = call ptr @mi_segment_map_index_of(ptr noundef %19, i1 noundef zeroext true, ptr noundef %3, ptr noundef %4) #7
  store ptr %20, ptr %5, align 8, !tbaa !15
  %21 = load ptr, ptr %5, align 8, !tbaa !15
  %22 = icmp eq ptr %21, null
  br i1 %22, label %23, label %24

23:                                               ; preds = %18
  store i32 1, ptr %6, align 4
  br label %54

24:                                               ; preds = %18
  call void @llvm.lifetime.start.p0(i64 8, ptr %7) #6
  %25 = load ptr, ptr %5, align 8, !tbaa !15
  %26 = getelementptr inbounds nuw %struct.mi_segmap_part_s, ptr %25, i32 0, i32 1
  %27 = load i64, ptr %3, align 8, !tbaa !17
  %28 = getelementptr inbounds nuw [1008 x i64], ptr %26, i64 0, i64 %27
  %29 = load atomic i64, ptr %28 monotonic, align 8
  store i64 %29, ptr %8, align 8
  %30 = load i64, ptr %8, align 8, !tbaa !17
  store i64 %30, ptr %7, align 8, !tbaa !17
  call void @llvm.lifetime.start.p0(i64 8, ptr %9) #6
  br label %31

31:                                               ; preds = %48, %24
  %32 = load i64, ptr %7, align 8, !tbaa !17
  %33 = load i64, ptr %4, align 8, !tbaa !17
  %34 = shl i64 1, %33
  %35 = or i64 %32, %34
  store i64 %35, ptr %9, align 8, !tbaa !17
  br label %36

36:                                               ; preds = %31
  %37 = load ptr, ptr %5, align 8, !tbaa !15
  %38 = getelementptr inbounds nuw %struct.mi_segmap_part_s, ptr %37, i32 0, i32 1
  %39 = load i64, ptr %3, align 8, !tbaa !17
  %40 = getelementptr inbounds nuw [1008 x i64], ptr %38, i64 0, i64 %39
  %41 = load i64, ptr %9, align 8, !tbaa !17
  store i64 %41, ptr %10, align 8, !tbaa !17
  %42 = load i64, ptr %7, align 8
  %43 = load i64, ptr %10, align 8
  %44 = cmpxchg weak ptr %40, i64 %42, i64 %43 release monotonic, align 8
  %45 = extractvalue { i64, i1 } %44, 0
  %46 = extractvalue { i64, i1 } %44, 1
  br i1 %46, label %48, label %47

47:                                               ; preds = %36
  store i64 %45, ptr %7, align 8
  br label %48

48:                                               ; preds = %47, %36
  %49 = zext i1 %46 to i8
  store i8 %49, ptr %11, align 1, !tbaa !18
  %50 = load i8, ptr %11, align 1, !tbaa !18, !range !19, !noundef !20
  %51 = trunc i8 %50 to i1
  %52 = xor i1 %51, true
  br i1 %52, label %31, label %53, !llvm.loop !21

53:                                               ; preds = %48
  call void @llvm.lifetime.end.p0(i64 8, ptr %9) #6
  call void @llvm.lifetime.end.p0(i64 8, ptr %7) #6
  store i32 0, ptr %6, align 4
  br label %54

54:                                               ; preds = %53, %23
  call void @llvm.lifetime.end.p0(i64 8, ptr %5) #6
  call void @llvm.lifetime.end.p0(i64 8, ptr %4) #6
  call void @llvm.lifetime.end.p0(i64 8, ptr %3) #6
  %55 = load i32, ptr %6, align 4
  switch i32 %55, label %57 [
    i32 0, label %56
    i32 1, label %56
  ]

56:                                               ; preds = %17, %54, %54
  ret void

57:                                               ; preds = %54
  unreachable
}